target datalayout = "e-m:e-p270:32:32-p271:32:32-p272:64:64-i64:64-i128:128-f80:128-n8:16:32:64-S128"
target triple = "x86_64-pc-linux-gnu"

@_ZZN2cv5utils5trace7details15getTraceManagerEvE8instance = internal global ptr null, align 8
@_ZGVZN2cv5utils5trace7details15getTraceManagerEvE8instance = internal global i64 0, align 8

; Function Attrs: mustprogress uwtable
define noundef nonnull align 8 dereferenceable(208) ptr @_ZN2cv5utils5trace7details15getTraceManagerEv() #4 personality ptr @__gxx_personality_v0 {
  %1 = alloca ptr, align 8
  %2 = alloca i32, align 4
  %3 = load atomic i8, ptr @_ZGVZN2cv5utils5trace7details15getTraceManagerEvE8instance acquire, align 8
  %4 = icmp eq i8 %3, 0
  br i1 %4, label %5, label %12, !prof !42

5:                                                ; preds = %0
  %6 = call i32 @__cxa_guard_acquire(ptr @_ZGVZN2cv5utils5trace7details15getTraceManagerEvE8instance) #3
  %7 = icmp ne i32 %6, 0
  br i1 %7, label %8, label %12

8:                                                ; preds = %5
  %9 = invoke noundef ptr @_ZN2cv5utils5trace7detailsL23getTraceManagerCallOnceEv()
          to label %10 unwind label %14

10:                                               ; preds = %8
  store ptr %9, ptr @_ZZN2cv5utils5trace7details15getTraceManagerEvE8instance, align 8, !tbaa !43
  %11 = call ptr @llvm.invariant.start.p0(i64 8, ptr @_ZZN2cv5utils5trace7details15getTraceManagerEvE8instance)
  call void @__cxa_guard_release(ptr @_ZGVZN2cv5utils5trace7details15getTraceManagerEvE8instance) #3
  br label %12

12:                                               ; preds = %10, %5, %0
  %13 = load ptr, ptr @_ZZN2cv5utils5trace7details15getTraceManagerEvE8instance, align 8, !tbaa !43
  ret ptr %13

14:                                               ; preds = %8
  %15 = landingpad { ptr, i32 }
          cleanup
  %16 = extractvalue { ptr, i32 } %15, 0
  store ptr %16, ptr %1, align 8
  %17 = extractvalue { ptr, i32 } %15, 1
  store i32 %17, ptr %2, align 4
  call void @__cxa_guard_abort(ptr @_ZGVZN2cv5utils5trace7details15getTraceManagerEvE8instance) #3
  br label %18

18:                                               ; preds = %14
  %19 = load ptr, ptr %1, align 8
  %20 = load i32, ptr %2, align 4
  %21 = insertvalue { ptr, i32 } poison, ptr %19, 0
  %22 = insertvalue { ptr, i32 } %21, i32 %20, 1
  resume { ptr, i32 } %22
}