; Function Attrs: mustprogress uwtable
define noundef nonnull align 8 dereferenceable(208) ptr @_ZN2cv5utils5trace7details15getTraceManagerEv() local_unnamed_addr #3 personality ptr @__gxx_personality_v0 {
  %1 = load atomic i8, ptr @_ZGVZN2cv5utils5trace7details15getTraceManagerEvE8instance acquire, align 8
  %2 = icmp eq i8 %1, 0
  br i1 %2, label %3, label %8, !prof !28

3:                                                ; preds = %0
  %4 = tail call i32 @__cxa_guard_acquire(ptr nonnull @_ZGVZN2cv5utils5trace7details15getTraceManagerEvE8instance) #24
  %.not = icmp eq i32 %4, 0
  br i1 %.not, label %8, label %5

5:                                                ; preds = %3
  invoke fastcc void @_ZN2cv5utils5trace7detailsL23getTraceManagerCallOnceEv()
          to label %6 unwind label %10

6:                                                ; preds = %5
  store ptr @_ZZN2cv5utils5trace7detailsL23getTraceManagerCallOnceEvE14globalInstance, ptr @_ZZN2cv5utils5trace7details15getTraceManagerEvE8instance, align 8, !tbaa !29
  %7 = tail call ptr @llvm.invariant.start.p0(i64 8, ptr nonnull @_ZZN2cv5utils5trace7details15getTraceManagerEvE8instance)
  tail call void @__cxa_guard_release(ptr nonnull @_ZGVZN2cv5utils5trace7details15getTraceManagerEvE8instance) #24
  br label %8

8:                                                ; preds = %6, %3, %0
  %9 = load ptr, ptr @_ZZN2cv5utils5trace7details15getTraceManagerEvE8instance, align 8, !tbaa !29
  ret ptr %9

10:                                               ; preds = %5
  %11 = landingpad { ptr, i32 }
          cleanup
  tail call void @__cxa_guard_abort(ptr nonnull @_ZGVZN2cv5utils5trace7details15getTraceManagerEvE8instance) #24
  resume { ptr, i32 } %11
}